; ModuleID = '24/911.c'
source_filename = "24/911.c"
target datalayout = "e-m:e-p270:32:32-p271:32:32-p272:64:64-i64:64-f80:128-n8:16:32:64-S128"
target triple = "x86_64-pc-linux-gnu"

@.str = private unnamed_addr constant [3 x i8] c"%c\00", align 1
@.str.1 = private unnamed_addr constant [2 x i8] c"\0A\00", align 1

; Function Attrs: noinline nounwind uwtable
define dso_local i32 @main() #0 {
  %1 = alloca i32, align 4
  %2 = alloca [100 x i8], align 16
  %3 = alloca i32, align 4
  %4 = alloca i32, align 4
  %5 = alloca i32, align 4
  %6 = alloca i32, align 4
  %7 = alloca i32, align 4
  %8 = alloca i32, align 4
  store i32 0, i32* %1, align 4
  %9 = getelementptr inbounds [100 x i8], [100 x i8]* %2, i64 0, i64 0
  %10 = call i32 (i8*, ...) bitcast (i32 (...)* @gets to i32 (i8*, ...)*)(i8* %9)
  store i32 0, i32* %3, align 4
  store i32 0, i32* %4, align 4
  store i32 0, i32* %7, align 4
  store i32 0, i32* %5, align 4
  store i32 50, i32* %6, align 4
  store i32 0, i32* %8, align 4
  br label %11

11:                                               ; preds = %44, %0
  %12 = load i32, i32* %8, align 4
  %13 = sext i32 %12 to i64
  %14 = getelementptr inbounds [100 x i8], [100 x i8]* %2, i64 0, i64 %13
  %15 = load i8, i8* %14, align 1
  %16 = sext i8 %15 to i32
  %17 = icmp ne i32 %16, 0
  br i1 %17, label %18, label %47

18:                                               ; preds = %11
  %19 = load i32, i32* %8, align 4
  %20 = sext i32 %19 to i64
  %21 = getelementptr inbounds [100 x i8], [100 x i8]* %2, i64 0, i64 %20
  %22 = load i8, i8* %21, align 1
  %23 = sext i8 %22 to i32
  %24 = icmp eq i32 %23, 32
  br i1 %24, label %25, label %40

25:                                               ; preds = %18
  %26 = load i32, i32* %5, align 4
  %27 = load i32, i32* %7, align 4
  %28 = icmp slt i32 %26, %27
  br i1 %28, label %29, label %32

29:                                               ; preds = %25
  %30 = load i32, i32* %7, align 4
  store i32 %30, i32* %5, align 4
  %31 = load i32, i32* %8, align 4
  store i32 %31, i32* %3, align 4
  br label %32

32:                                               ; preds = %29, %25
  %33 = load i32, i32* %6, align 4
  %34 = load i32, i32* %7, align 4
  %35 = icmp sgt i32 %33, %34
  br i1 %35, label %36, label %39

36:                                               ; preds = %32
  %37 = load i32, i32* %7, align 4
  store i32 %37, i32* %6, align 4
  %38 = load i32, i32* %8, align 4
  store i32 %38, i32* %4, align 4
  br label %39

39:                                               ; preds = %36, %32
  store i32 0, i32* %7, align 4
  br label %43

40:                                               ; preds = %18
  %41 = load i32, i32* %7, align 4
  %42 = add nsw i32 %41, 1
  store i32 %42, i32* %7, align 4
  br label %43

43:                                               ; preds = %40, %39
  br label %44

44:                                               ; preds = %43
  %45 = load i32, i32* %8, align 4
  %46 = add nsw i32 %45, 1
  store i32 %46, i32* %8, align 4
  br label %11

47:                                               ; preds = %11
  %48 = load i32, i32* %5, align 4
  %49 = load i32, i32* %7, align 4
  %50 = icmp slt i32 %48, %49
  br i1 %50, label %51, label %54

51:                                               ; preds = %47
  %52 = load i32, i32* %7, align 4
  store i32 %52, i32* %5, align 4
  %53 = load i32, i32* %8, align 4
  store i32 %53, i32* %3, align 4
  br label %54

54:                                               ; preds = %51, %47
  %55 = load i32, i32* %6, align 4
  %56 = load i32, i32* %7, align 4
  %57 = icmp sgt i32 %55, %56
  br i1 %57, label %58, label %61

58:                                               ; preds = %54
  %59 = load i32, i32* %7, align 4
  store i32 %59, i32* %6, align 4
  %60 = load i32, i32* %8, align 4
  store i32 %60, i32* %4, align 4
  br label %61

61:                                               ; preds = %58, %54
  %62 = load i32, i32* %3, align 4
  %63 = load i32, i32* %5, align 4
  %64 = sub nsw i32 %62, %63
  store i32 %64, i32* %8, align 4
  br label %65

65:                                               ; preds = %76, %61
  %66 = load i32, i32* %8, align 4
  %67 = load i32, i32* %3, align 4
  %68 = icmp slt i32 %66, %67
  br i1 %68, label %69, label %79

69:                                               ; preds = %65
  %70 = load i32, i32* %8, align 4
  %71 = sext i32 %70 to i64
  %72 = getelementptr inbounds [100 x i8], [100 x i8]* %2, i64 0, i64 %71
  %73 = load i8, i8* %72, align 1
  %74 = sext i8 %73 to i32
  %75 = call i32 (i8*, ...) @printf(i8* getelementptr inbounds ([3 x i8], [3 x i8]* @.str, i64 0, i64 0), i32 %74)
  br label %76

76:                                               ; preds = %69
  %77 = load i32, i32* %8, align 4
  %78 = add nsw i32 %77, 1
  store i32 %78, i32* %8, align 4
  br label %65

79:                                               ; preds = %65
  %80 = call i32 (i8*, ...) @printf(i8* getelementptr inbounds ([2 x i8], [2 x i8]* @.str.1, i64 0, i64 0))
  %81 = load i32, i32* %4, align 4
  %82 = load i32, i32* %6, align 4
  %83 = sub nsw i32 %81, %82
  store i32 %83, i32* %8, align 4
  br label %84

84:                                               ; preds = %95, %79
  %85 = load i32, i32* %8, align 4
  %86 = load i32, i32* %4, align 4
  %87 = icmp slt i32 %85, %86
  br i1 %87, label %88, label %98

88:                                               ; preds = %84
  %89 = load i32, i32* %8, align 4
  %90 = sext i32 %89 to i64
  %91 = getelementptr inbounds [100 x i8], [100 x i8]* %2, i64 0, i64 %90
  %92 = load i8, i8* %91, align 1
  %93 = sext i8 %92 to i32
  %94 = call i32 (i8*, ...) @printf(i8* getelementptr inbounds ([3 x i8], [3 x i8]* @.str, i64 0, i64 0), i32 %93)
  br label %95

95:                                               ; preds = %88
  %96 = load i32, i32* %8, align 4
  %97 = add nsw i32 %96, 1
  store i32 %97, i32* %8, align 4
  br label %84

98:                                               ; preds = %84
  ret i32 0
}

declare dso_local i32 @gets(...) #1

declare dso_local i32 @printf(i8*, ...) #1


!llvm.module.flags = !{!0}
!llvm.ident = !{!1}

!0 = !{i32 1, !"wchar_size", i32 4}
!1 = !{!"clang version 10.0.0-4ubuntu1 "}
